target datalayout = "e-m:e-p270:32:32-p271:32:32-p272:64:64-i64:64-i128:128-f80:128-n8:16:32:64-S128"
target triple = "x86_64-pc-linux-gnu"

@uncommitted_enum_types = internal global ptr null, align 8
@uncommitted_enum_values = internal global ptr null, align 8

; Function Attrs: nounwind uwtable
define dso_local i64 @EstimateUncommittedEnumsSpace() #0 {
  %1 = alloca i64, align 8
  call void @llvm.lifetime.start.p0(i64 8, ptr %1) #7
  store i64 0, ptr %1, align 8
  %2 = load ptr, ptr @uncommitted_enum_types, align 8
  %3 = icmp ne ptr %2, null
  br i1 %3, label %4, label %9

4:                                                ; preds = %0
  %5 = load ptr, ptr @uncommitted_enum_types, align 8
  %6 = call i64 @hash_get_num_entries(ptr noundef %5)
  %7 = load i64, ptr %1, align 8
  %8 = add i64 %7, %6
  store i64 %8, ptr %1, align 8
  br label %9

9:                                                ; preds = %4, %0
  %10 = load ptr, ptr @uncommitted_enum_values, align 8
  %11 = icmp ne ptr %10, null
  br i1 %11, label %12, label %17

12:                                               ; preds = %9
  %13 = load ptr, ptr @uncommitted_enum_values, align 8
  %14 = call i64 @hash_get_num_entries(ptr noundef %13)
  %15 = load i64, ptr %1, align 8
  %16 = add i64 %15, %14
  store i64 %16, ptr %1, align 8
  br label %17

17:                                               ; preds = %12, %9
  %18 = load i64, ptr %1, align 8
  %19 = add i64 %18, 2
  %20 = mul i64 4, %19
  call void @llvm.lifetime.end.p0(i64 8, ptr %1) #7
  ret i64 %20
}