; Function Attrs: nounwind uwtable
define dso_local range(i64 8, 5) i64 @EstimateUncommittedEnumsSpace() local_unnamed_addr #0 {
  %1 = load ptr, ptr @uncommitted_enum_types, align 8
  %.not = icmp eq ptr %1, null
  br i1 %.not, label %4, label %2

2:                                                ; preds = %0
  %3 = tail call i64 @hash_get_num_entries(ptr noundef nonnull %1) #10
  br label %4

4:                                                ; preds = %2, %0
  %.0 = phi i64 [ %3, %2 ], [ 0, %0 ]
  %5 = load ptr, ptr @uncommitted_enum_values, align 8
  %.not5 = icmp eq ptr %5, null
  br i1 %.not5, label %9, label %6

6:                                                ; preds = %4
  %7 = tail call i64 @hash_get_num_entries(ptr noundef nonnull %5) #10
  %8 = add i64 %7, %.0
  br label %9

9:                                                ; preds = %6, %4
  %.1 = phi i64 [ %8, %6 ], [ %.0, %4 ]
  %10 = shl i64 %.1, 2
  %11 = add i64 %10, 8
  ret i64 %11
}